; Function Attrs: mustprogress nofree norecurse nosync nounwind willreturn memory(argmem: readwrite) uwtable
define void @_ZN10open_spiel10phantom_go14PhantomGoBoard5Chain14remove_libertyEt(ptr nocapture noundef nonnull align 4 dereferenceable(12) %0, i16 noundef zeroext %1) local_unnamed_addr #4 align 2 {
  %3 = getelementptr inbounds nuw i8, ptr %0, i64 8
  %4 = load i16, ptr %3, align 4
  %5 = add i16 %4, -1
  store i16 %5, ptr %3, align 4
  %6 = zext i16 %1 to i32
  %7 = getelementptr inbounds nuw i8, ptr %0, i64 4
  %8 = load i16, ptr %7, align 4
  %9 = sub i16 %8, %1
  store i16 %9, ptr %7, align 4
  %10 = mul nuw i32 %6, %6
  %11 = load i32, ptr %0, align 4
  %12 = sub i32 %11, %10
  store i32 %12, ptr %0, align 4
  ret void
}